target datalayout = "e-m:e-p270:32:32-p271:32:32-p272:64:64-i64:64-i128:128-f80:128-n8:16:32:64-S128"
target triple = "x86_64-pc-linux-gnu"

%"class.marisa::grimoire::trie::LoudsTrie" = type { %"class.marisa::grimoire::vector::BitVector", %"class.marisa::grimoire::vector::BitVector", %"class.marisa::grimoire::vector::BitVector", %"class.marisa::grimoire::vector::Vector.4", %"class.marisa::grimoire::vector::FlatVector", %"class.marisa::grimoire::trie::Tail", %"class.marisa::scoped_ptr", %"class.marisa::grimoire::vector::Vector.8", i64, i64, %"class.marisa::grimoire::trie::Config", %"class.marisa::grimoire::io::Mapper" }
%"class.marisa::grimoire::vector::BitVector" = type { %"class.marisa::grimoire::vector::Vector", i64, i64, %"class.marisa::grimoire::vector::Vector.0", %"class.marisa::grimoire::vector::Vector.2", %"class.marisa::grimoire::vector::Vector.2" }
%"class.marisa::grimoire::vector::Vector" = type <{ %"class.marisa::scoped_array", ptr, ptr, i64, i64, i8, [7 x i8] }>
%"class.marisa::scoped_array" = type { ptr }
%"class.marisa::grimoire::vector::Vector.0" = type <{ %"class.marisa::scoped_array", ptr, ptr, i64, i64, i8, [7 x i8] }>
%"class.marisa::grimoire::vector::Vector.2" = type <{ %"class.marisa::scoped_array", ptr, ptr, i64, i64, i8, [7 x i8] }>
%"class.marisa::grimoire::vector::Vector.4" = type <{ %"class.marisa::scoped_array", ptr, ptr, i64, i64, i8, [7 x i8] }>
%"class.marisa::grimoire::vector::FlatVector" = type { %"class.marisa::grimoire::vector::Vector", i64, i32, i64 }
%"class.marisa::grimoire::trie::Tail" = type { %"class.marisa::grimoire::vector::Vector.6", %"class.marisa::grimoire::vector::BitVector" }
%"class.marisa::grimoire::vector::Vector.6" = type <{ %"class.marisa::scoped_array", ptr, ptr, i64, i64, i8, [7 x i8] }>
%"class.marisa::scoped_ptr" = type { ptr }
%"class.marisa::grimoire::vector::Vector.8" = type <{ %"class.marisa::scoped_array", ptr, ptr, i64, i64, i8, [7 x i8] }>
%"class.marisa::grimoire::trie::Config" = type <{ i64, i32, i32, i32, [4 x i8] }>
%"class.marisa::grimoire::io::Mapper" = type <{ ptr, ptr, i64, i64, i32, [4 x i8] }>
%"class.marisa::grimoire::trie::Header" = type { i8 }
%"class.marisa::Exception" = type { %"class.std::exception", ptr, i32, i32, ptr }
%"class.std::exception" = type { ptr }

@_ZTIN6marisa9ExceptionE = linkonce_odr constant { ptr, ptr, ptr } { ptr getelementptr inbounds (ptr, ptr @_ZTVN10__cxxabiv120__si_class_type_infoE, i64 2), ptr @_ZTSN6marisa9ExceptionE, ptr @_ZTISt9exception }, comdat, align 8
@.str.11 = private unnamed_addr constant [143 x i8] c"generated/home/dtcxzyw/WorkSpace/Projects/compilers/llvm-opt-benchmark/bench/opencc/OpenCC/deps/marisa-0.2.6/lib/marisa/grimoire/trie/header.h\00", align 1
@_ZZN6marisa8grimoire4trie6Header10get_headerEvE3buf = linkonce_odr constant [16 x i8] c"We love Marisa.\00", comdat, align 16
@.str.16 = private unnamed_addr constant [186 x i8] c"generated/home/dtcxzyw/WorkSpace/Projects/compilers/llvm-opt-benchmark/bench/opencc/OpenCC/deps/marisa-0.2.6/lib/marisa/grimoire/trie/header.h:26: MARISA_FORMAT_ERROR: !test_header(buf)\00", align 1
@.str.17 = private unnamed_addr constant [141 x i8] c"generated/home/dtcxzyw/WorkSpace/Projects/compilers/llvm-opt-benchmark/bench/opencc/OpenCC/deps/marisa-0.2.6/lib/marisa/grimoire/io/reader.h\00", align 1
@.str.18 = private unnamed_addr constant [198 x i8] c"generated/home/dtcxzyw/WorkSpace/Projects/compilers/llvm-opt-benchmark/bench/opencc/OpenCC/deps/marisa-0.2.6/lib/marisa/grimoire/io/reader.h:31: MARISA_NULL_ERROR: (objs == NULL) && (num_objs != 0)\00", align 1
@.str.19 = private unnamed_addr constant [205 x i8] c"generated/home/dtcxzyw/WorkSpace/Projects/compilers/llvm-opt-benchmark/bench/opencc/OpenCC/deps/marisa-0.2.6/lib/marisa/grimoire/io/reader.h:33: MARISA_SIZE_ERROR: num_objs > (MARISA_SIZE_MAX / sizeof(T))\00", align 1
@_ZTVN6marisa9ExceptionE = linkonce_odr unnamed_addr constant { [5 x ptr] } { [5 x ptr] [ptr null, ptr @_ZTIN6marisa9ExceptionE, ptr @_ZN6marisa9ExceptionD2Ev, ptr @_ZN6marisa9ExceptionD0Ev, ptr @_ZNK6marisa9Exception4whatEv] }, comdat, align 8
@_ZTVSt9exception = external unnamed_addr constant { [5 x ptr] }, align 8
@_ZN6marisa8grimoire4trie9LoudsTrieC1Ev = unnamed_addr alias void (ptr), ptr @_ZN6marisa8grimoire4trie9LoudsTrieC2Ev
@_ZN6marisa8grimoire4trie9LoudsTrieD1Ev = unnamed_addr alias void (ptr), ptr @_ZN6marisa8grimoire4trie9LoudsTrieD2Ev

; Function Attrs: mustprogress nounwind uwtable
define linkonce_odr void @_ZNSt9exceptionC2Ev(ptr noundef nonnull align 8 dereferenceable(8) %0) unnamed_addr #5 comdat align 2 {
  %2 = alloca ptr, align 8
  store ptr %0, ptr %2, align 8
  %3 = load ptr, ptr %2, align 8
  store ptr getelementptr inbounds inrange(-16, 24) ({ [5 x ptr] }, ptr @_ZTVSt9exception, i32 0, i32 0, i32 2), ptr %3, align 8
  ret void
}

; Function Attrs: mustprogress nounwind uwtable
define linkonce_odr noundef ptr @_ZN6marisa8grimoire4trie6Header10get_headerEv() #5 comdat align 2 {
  ret ptr @_ZZN6marisa8grimoire4trie6Header10get_headerEvE3buf
}

; Function Attrs: mustprogress nounwind uwtable
define linkonce_odr void @_ZN6marisa9ExceptionC2EPKci18marisa_error_code_S2_(ptr noundef nonnull align 8 dereferenceable(32) %0, ptr noundef %1, i32 noundef %2, i32 noundef %3, ptr noundef %4) unnamed_addr #5 comdat align 2 {
  %6 = alloca ptr, align 8
  %7 = alloca ptr, align 8
  %8 = alloca i32, align 4
  %9 = alloca i32, align 4
  %10 = alloca ptr, align 8
  store ptr %0, ptr %6, align 8
  store ptr %1, ptr %7, align 8
  store i32 %2, ptr %8, align 4
  store i32 %3, ptr %9, align 4
  store ptr %4, ptr %10, align 8
  %11 = load ptr, ptr %6, align 8
  call void @_ZNSt9exceptionC2Ev(ptr noundef nonnull align 8 dereferenceable(8) %11) #3
  store ptr getelementptr inbounds inrange(-16, 24) ({ [5 x ptr] }, ptr @_ZTVN6marisa9ExceptionE, i32 0, i32 0, i32 2), ptr %11, align 8
  %12 = getelementptr inbounds %"class.marisa::Exception", ptr %11, i32 0, i32 1
  %13 = load ptr, ptr %7, align 8
  store ptr %13, ptr %12, align 8
  %14 = getelementptr inbounds %"class.marisa::Exception", ptr %11, i32 0, i32 2
  %15 = load i32, ptr %8, align 4
  store i32 %15, ptr %14, align 8
  %16 = getelementptr inbounds %"class.marisa::Exception", ptr %11, i32 0, i32 3
  %17 = load i32, ptr %9, align 4
  store i32 %17, ptr %16, align 4
  %18 = getelementptr inbounds %"class.marisa::Exception", ptr %11, i32 0, i32 4
  %19 = load ptr, ptr %10, align 8
  store ptr %19, ptr %18, align 8
  ret void
}

; Function Attrs: mustprogress uwtable
define linkonce_odr noundef zeroext i1 @_ZN6marisa8grimoire4trie6Header11test_headerEPKc(ptr noundef %0) #4 comdat align 2 {
  %2 = alloca i1, align 1
  %3 = alloca ptr, align 8
  %4 = alloca i64, align 8
  store ptr %0, ptr %3, align 8
  store i64 0, ptr %4, align 8
  br label %5

5:                                                ; preds = %22, %1
  %6 = load i64, ptr %4, align 8
  %7 = icmp ult i64 %6, 16
  br i1 %7, label %8, label %25

8:                                                ; preds = %5
  %9 = load ptr, ptr %3, align 8
  %10 = load i64, ptr %4, align 8
  %11 = getelementptr inbounds i8, ptr %9, i64 %10
  %12 = load i8, ptr %11, align 1
  %13 = sext i8 %12 to i32
  %14 = call noundef ptr @_ZN6marisa8grimoire4trie6Header10get_headerEv()
  %15 = load i64, ptr %4, align 8
  %16 = getelementptr inbounds i8, ptr %14, i64 %15
  %17 = load i8, ptr %16, align 1
  %18 = sext i8 %17 to i32
  %19 = icmp ne i32 %13, %18
  br i1 %19, label %20, label %21

20:                                               ; preds = %8
  store i1 false, ptr %2, align 1
  br label %26

21:                                               ; preds = %8
  br label %22

22:                                               ; preds = %21
  %23 = load i64, ptr %4, align 8
  %24 = add i64 %23, 1
  store i64 %24, ptr %4, align 8
  br label %5, !llvm.loop !52

25:                                               ; preds = %5
  store i1 true, ptr %2, align 1
  br label %26

26:                                               ; preds = %25, %20
  %27 = load i1, ptr %2, align 1
  ret i1 %27
}

; Function Attrs: mustprogress uwtable
define linkonce_odr void @_ZN6marisa8grimoire2io6Reader4readIcEEvPT_m(ptr noundef nonnull align 8 dereferenceable(25) %0, ptr noundef %1, i64 noundef %2) #4 comdat align 2 personality ptr @__gxx_personality_v0 {
  %4 = alloca ptr, align 8
  %5 = alloca ptr, align 8
  %6 = alloca i64, align 8
  %7 = alloca ptr, align 8
  %8 = alloca i1, align 1
  %9 = alloca ptr, align 8
  %10 = alloca i32, align 4
  %11 = alloca ptr, align 8
  %12 = alloca i1, align 1
  store ptr %0, ptr %4, align 8
  store ptr %1, ptr %5, align 8
  store i64 %2, ptr %6, align 8
  %13 = load ptr, ptr %4, align 8
  %14 = load ptr, ptr %5, align 8
  %15 = icmp eq ptr %14, null
  store i1 false, ptr %8, align 1
  br i1 %15, label %16, label %23

16:                                               ; preds = %3
  %17 = load i64, ptr %6, align 8
  %18 = icmp ne i64 %17, 0
  br i1 %18, label %19, label %23

19:                                               ; preds = %16
  %20 = call ptr @__cxa_allocate_exception(i64 32) #3
  store ptr %20, ptr %7, align 8
  store i1 true, ptr %8, align 1
  invoke void @_ZN6marisa9ExceptionC2EPKci18marisa_error_code_S2_(ptr noundef nonnull align 8 dereferenceable(32) %20, ptr noundef @.str.17, i32 noundef 31, i32 noundef 2, ptr noundef @.str.18)
          to label %21 unwind label %34

21:                                               ; preds = %19
  call void @__cxa_throw(ptr %20, ptr @_ZTIN6marisa9ExceptionE, ptr @_ZN6marisa9ExceptionD2Ev) #17
  unreachable

22:                                               ; No predecessors!
  br label %23

23:                                               ; preds = %22, %16, %3
  %24 = load i64, ptr %6, align 8
  %25 = icmp ugt i64 %24, -1
  store i1 false, ptr %12, align 1
  br i1 %25, label %26, label %30

26:                                               ; preds = %23
  %27 = call ptr @__cxa_allocate_exception(i64 32) #3
  store ptr %27, ptr %11, align 8
  store i1 true, ptr %12, align 1
  invoke void @_ZN6marisa9ExceptionC2EPKci18marisa_error_code_S2_(ptr noundef nonnull align 8 dereferenceable(32) %27, ptr noundef @.str.17, i32 noundef 33, i32 noundef 7, ptr noundef @.str.19)
          to label %28 unwind label %42

28:                                               ; preds = %26
  call void @__cxa_throw(ptr %27, ptr @_ZTIN6marisa9ExceptionE, ptr @_ZN6marisa9ExceptionD2Ev) #17
  unreachable

29:                                               ; No predecessors!
  br label %30

30:                                               ; preds = %29, %23
  %31 = load ptr, ptr %5, align 8
  %32 = load i64, ptr %6, align 8
  %33 = mul i64 1, %32
  call void @_ZN6marisa8grimoire2io6Reader9read_dataEPvm(ptr noundef nonnull align 8 dereferenceable(25) %13, ptr noundef %31, i64 noundef %33)
  ret void

34:                                               ; preds = %19
  %35 = landingpad { ptr, i32 }
          cleanup
  %36 = extractvalue { ptr, i32 } %35, 0
  store ptr %36, ptr %9, align 8
  %37 = extractvalue { ptr, i32 } %35, 1
  store i32 %37, ptr %10, align 4
  %38 = load i1, ptr %8, align 1
  br i1 %38, label %39, label %41

39:                                               ; preds = %34
  %40 = load ptr, ptr %7, align 8
  call void @__cxa_free_exception(ptr %40) #3
  br label %41

41:                                               ; preds = %39, %34
  br label %50

42:                                               ; preds = %26
  %43 = landingpad { ptr, i32 }
          cleanup
  %44 = extractvalue { ptr, i32 } %43, 0
  store ptr %44, ptr %9, align 8
  %45 = extractvalue { ptr, i32 } %43, 1
  store i32 %45, ptr %10, align 4
  %46 = load i1, ptr %12, align 1
  br i1 %46, label %47, label %49

47:                                               ; preds = %42
  %48 = load ptr, ptr %11, align 8
  call void @__cxa_free_exception(ptr %48) #3
  br label %49

49:                                               ; preds = %47, %42
  br label %50

50:                                               ; preds = %49, %41
  %51 = load ptr, ptr %9, align 8
  %52 = load i32, ptr %10, align 4
  %53 = insertvalue { ptr, i32 } poison, ptr %51, 0
  %54 = insertvalue { ptr, i32 } %53, i32 %52, 1
  resume { ptr, i32 } %54
}

; Function Attrs: mustprogress uwtable
define linkonce_odr void @_ZN6marisa8grimoire4trie6Header4readERNS0_2io6ReaderE(ptr noundef nonnull align 1 dereferenceable(1) %0, ptr noundef nonnull align 8 dereferenceable(25) %1) #4 comdat align 2 personality ptr @__gxx_personality_v0 {
  %3 = alloca ptr, align 8
  %4 = alloca ptr, align 8
  %5 = alloca [16 x i8], align 16
  %6 = alloca ptr, align 8
  %7 = alloca i1, align 1
  %8 = alloca ptr, align 8
  %9 = alloca i32, align 4
  store ptr %0, ptr %3, align 8
  store ptr %1, ptr %4, align 8
  %10 = load ptr, ptr %4, align 8
  %11 = getelementptr inbounds [16 x i8], ptr %5, i64 0, i64 0
  call void @_ZN6marisa8grimoire2io6Reader4readIcEEvPT_m(ptr noundef nonnull align 8 dereferenceable(25) %10, ptr noundef %11, i64 noundef 16)
  %12 = getelementptr inbounds [16 x i8], ptr %5, i64 0, i64 0
  %13 = call noundef zeroext i1 @_ZN6marisa8grimoire4trie6Header11test_headerEPKc(ptr noundef %12)
  store i1 false, ptr %7, align 1
  br i1 %13, label %18, label %14

14:                                               ; preds = %2
  %15 = call ptr @__cxa_allocate_exception(i64 32) #3
  store ptr %15, ptr %6, align 8
  store i1 true, ptr %7, align 1
  invoke void @_ZN6marisa9ExceptionC2EPKci18marisa_error_code_S2_(ptr noundef nonnull align 8 dereferenceable(32) %15, ptr noundef @.str.11, i32 noundef 26, i32 noundef 10, ptr noundef @.str.16)
          to label %16 unwind label %19

16:                                               ; preds = %14
  call void @__cxa_throw(ptr %15, ptr @_ZTIN6marisa9ExceptionE, ptr @_ZN6marisa9ExceptionD2Ev) #17
  unreachable

17:                                               ; No predecessors!
  br label %18

18:                                               ; preds = %17, %2
  ret void

19:                                               ; preds = %14
  %20 = landingpad { ptr, i32 }
          cleanup
  %21 = extractvalue { ptr, i32 } %20, 0
  store ptr %21, ptr %8, align 8
  %22 = extractvalue { ptr, i32 } %20, 1
  store i32 %22, ptr %9, align 4
  %23 = load i1, ptr %7, align 1
  br i1 %23, label %24, label %26

24:                                               ; preds = %19
  %25 = load ptr, ptr %6, align 8
  call void @__cxa_free_exception(ptr %25) #3
  br label %26

26:                                               ; preds = %24, %19
  br label %27

27:                                               ; preds = %26
  %28 = load ptr, ptr %8, align 8
  %29 = load i32, ptr %9, align 4
  %30 = insertvalue { ptr, i32 } poison, ptr %28, 0
  %31 = insertvalue { ptr, i32 } %30, i32 %29, 1
  resume { ptr, i32 } %31
}

; Function Attrs: mustprogress nounwind uwtable
define linkonce_odr void @_ZN6marisa8grimoire4trie6HeaderC2Ev(ptr noundef nonnull align 1 dereferenceable(1) %0) unnamed_addr #5 comdat align 2 {
  %2 = alloca ptr, align 8
  store ptr %0, ptr %2, align 8
  ret void
}

; Function Attrs: mustprogress uwtable
define void @_ZN6marisa8grimoire4trie9LoudsTrie4readERNS0_2io6ReaderE(ptr noundef nonnull align 8 dereferenceable(1136) %0, ptr noundef nonnull align 8 dereferenceable(25) %1) #4 align 2 personality ptr @__gxx_personality_v0 {
  %3 = alloca ptr, align 8
  %4 = alloca ptr, align 8
  %5 = alloca %"class.marisa::grimoire::trie::Header", align 1
  %6 = alloca %"class.marisa::grimoire::trie::LoudsTrie", align 8
  %7 = alloca ptr, align 8
  %8 = alloca i32, align 4
  store ptr %0, ptr %3, align 8
  store ptr %1, ptr %4, align 8
  %9 = load ptr, ptr %3, align 8
  call void @_ZN6marisa8grimoire4trie6HeaderC2Ev(ptr noundef nonnull align 1 dereferenceable(1) %5)
  %10 = load ptr, ptr %4, align 8
  call void @_ZN6marisa8grimoire4trie6Header4readERNS0_2io6ReaderE(ptr noundef nonnull align 1 dereferenceable(1) %5, ptr noundef nonnull align 8 dereferenceable(25) %10)
  call void @_ZN6marisa8grimoire4trie9LoudsTrieC1Ev(ptr noundef nonnull align 8 dereferenceable(1136) %6)
  %11 = load ptr, ptr %4, align 8
  invoke void @_ZN6marisa8grimoire4trie9LoudsTrie5read_ERNS0_2io6ReaderE(ptr noundef nonnull align 8 dereferenceable(1136) %6, ptr noundef nonnull align 8 dereferenceable(25) %11)
          to label %12 unwind label %14

12:                                               ; preds = %2
  invoke void @_ZN6marisa8grimoire4trie9LoudsTrie4swapERS2_(ptr noundef nonnull align 8 dereferenceable(1136) %9, ptr noundef nonnull align 8 dereferenceable(1136) %6)
          to label %13 unwind label %14

13:                                               ; preds = %12
  call void @_ZN6marisa8grimoire4trie9LoudsTrieD1Ev(ptr noundef nonnull align 8 dereferenceable(1136) %6) #3
  ret void

14:                                               ; preds = %12, %2
  %15 = landingpad { ptr, i32 }
          cleanup
  %16 = extractvalue { ptr, i32 } %15, 0
  store ptr %16, ptr %7, align 8
  %17 = extractvalue { ptr, i32 } %15, 1
  store i32 %17, ptr %8, align 4
  call void @_ZN6marisa8grimoire4trie9LoudsTrieD1Ev(ptr noundef nonnull align 8 dereferenceable(1136) %6) #3
  br label %18

18:                                               ; preds = %14
  %19 = load ptr, ptr %7, align 8
  %20 = load i32, ptr %8, align 4
  %21 = insertvalue { ptr, i32 } poison, ptr %19, 0
  %22 = insertvalue { ptr, i32 } %21, i32 %20, 1
  resume { ptr, i32 } %22
}